target datalayout = "e-m:e-p270:32:32-p271:32:32-p272:64:64-i64:64-i128:128-f80:128-n8:16:32:64-S128"
target triple = "x86_64-pc-linux-gnu"

%struct.nk_rect = type { float, float, float, float }
%struct.nk_vec2 = type { float, float }
%struct.nk_allocator = type { %union.nk_handle, ptr, ptr }
%union.nk_handle = type { ptr }
%struct.nk_buffer = type { [2 x %struct.nk_buffer_marker], %struct.nk_allocator, i32, %struct.nk_memory, float, i64, i64, i64, i64 }
%struct.nk_buffer_marker = type { i32, i64 }
%struct.nk_memory = type { ptr, i64 }
%struct.nk_draw_list = type { %struct.nk_rect, [12 x %struct.nk_vec2], %struct.nk_convert_config, ptr, ptr, ptr, i32, i32, i32, i64, i32, i32, i32, i32 }
%struct.nk_convert_config = type { float, i32, i32, i32, i32, i32, %struct.nk_draw_null_texture, ptr, i64, i64 }
%struct.nk_draw_null_texture = type { %union.nk_handle, %struct.nk_vec2 }
%struct.nk_draw_command = type { i32, %struct.nk_rect, %union.nk_handle }

; Function Attrs: nounwind uwtable
define i64 @nk_buffer_total(ptr noundef %0) #0 {
  %2 = alloca i64, align 8
  %3 = alloca ptr, align 8
  store ptr %0, ptr %3, align 8, !tbaa !68
  %4 = load ptr, ptr %3, align 8, !tbaa !68
  %5 = icmp ne ptr %4, null
  br i1 %5, label %7, label %6

6:                                                ; preds = %1
  store i64 0, ptr %2, align 8
  br label %12

7:                                                ; preds = %1
  %8 = load ptr, ptr %3, align 8, !tbaa !68
  %9 = getelementptr inbounds nuw %struct.nk_buffer, ptr %8, i32 0, i32 3
  %10 = getelementptr inbounds nuw %struct.nk_memory, ptr %9, i32 0, i32 1
  %11 = load i64, ptr %10, align 8, !tbaa !81
  store i64 %11, ptr %2, align 8
  br label %12

12:                                               ; preds = %7, %6
  %13 = load i64, ptr %2, align 8
  ret i64 %13
}

; Function Attrs: nounwind uwtable
define ptr @nk_buffer_memory(ptr noundef %0) #0 {
  %2 = alloca ptr, align 8
  %3 = alloca ptr, align 8
  store ptr %0, ptr %3, align 8, !tbaa !68
  %4 = load ptr, ptr %3, align 8, !tbaa !68
  %5 = icmp ne ptr %4, null
  br i1 %5, label %7, label %6

6:                                                ; preds = %1
  store ptr null, ptr %2, align 8
  br label %12

7:                                                ; preds = %1
  %8 = load ptr, ptr %3, align 8, !tbaa !68
  %9 = getelementptr inbounds nuw %struct.nk_buffer, ptr %8, i32 0, i32 3
  %10 = getelementptr inbounds nuw %struct.nk_memory, ptr %9, i32 0, i32 0
  %11 = load ptr, ptr %10, align 8, !tbaa !80
  store ptr %11, ptr %2, align 8
  br label %12

12:                                               ; preds = %7, %6
  %13 = load ptr, ptr %2, align 8
  ret ptr %13
}

; Function Attrs: nounwind uwtable
define internal ptr @nk_draw_list_command_last(ptr noundef %0) #0 {
  %2 = alloca ptr, align 8
  %3 = alloca ptr, align 8
  %4 = alloca i64, align 8
  %5 = alloca ptr, align 8
  store ptr %0, ptr %2, align 8, !tbaa !306
  call void @llvm.lifetime.start.p0(i64 8, ptr %3) #10
  call void @llvm.lifetime.start.p0(i64 8, ptr %4) #10
  call void @llvm.lifetime.start.p0(i64 8, ptr %5) #10
  %6 = load ptr, ptr %2, align 8, !tbaa !306
  %7 = getelementptr inbounds nuw %struct.nk_draw_list, ptr %6, i32 0, i32 3
  %8 = load ptr, ptr %7, align 8, !tbaa !311
  %9 = call ptr @nk_buffer_memory(ptr noundef %8)
  store ptr %9, ptr %3, align 8, !tbaa !46
  %10 = load ptr, ptr %2, align 8, !tbaa !306
  %11 = getelementptr inbounds nuw %struct.nk_draw_list, ptr %10, i32 0, i32 3
  %12 = load ptr, ptr %11, align 8, !tbaa !311
  %13 = call i64 @nk_buffer_total(ptr noundef %12)
  store i64 %13, ptr %4, align 8, !tbaa !73
  %14 = load ptr, ptr %3, align 8, !tbaa !46
  %15 = load i64, ptr %4, align 8, !tbaa !73
  %16 = load ptr, ptr %2, align 8, !tbaa !306
  %17 = getelementptr inbounds nuw %struct.nk_draw_list, ptr %16, i32 0, i32 9
  %18 = load i64, ptr %17, align 8, !tbaa !322
  %19 = sub i64 %15, %18
  %20 = getelementptr inbounds nuw i8, ptr %14, i64 %19
  store ptr %20, ptr %5, align 8, !tbaa !327
  %21 = load ptr, ptr %5, align 8, !tbaa !327
  %22 = load ptr, ptr %2, align 8, !tbaa !306
  %23 = getelementptr inbounds nuw %struct.nk_draw_list, ptr %22, i32 0, i32 8
  %24 = load i32, ptr %23, align 8, !tbaa !325
  %25 = sub i32 %24, 1
  %26 = zext i32 %25 to i64
  %27 = sub i64 0, %26
  %28 = getelementptr inbounds %struct.nk_draw_command, ptr %21, i64 %27
  call void @llvm.lifetime.end.p0(i64 8, ptr %5) #10
  call void @llvm.lifetime.end.p0(i64 8, ptr %4) #10
  call void @llvm.lifetime.end.p0(i64 8, ptr %3) #10
  ret ptr %28
}

; Function Attrs: nounwind uwtable
define internal ptr @nk_draw_list_push_command(ptr noundef %0, <2 x float> %1, <2 x float> %2, ptr %3) #2 {
  %5 = alloca ptr, align 8
  %6 = alloca %struct.nk_rect, align 4
  %7 = alloca %union.nk_handle, align 8
  %8 = alloca ptr, align 8
  %9 = alloca ptr, align 8
  %10 = alloca i32, align 4
  %11 = alloca ptr, align 8
  %12 = alloca i64, align 8
  %13 = getelementptr inbounds nuw { <2 x float>, <2 x float> }, ptr %6, i32 0, i32 0
  store <2 x float> %1, ptr %13, align 4
  %14 = getelementptr inbounds nuw { <2 x float>, <2 x float> }, ptr %6, i32 0, i32 1
  store <2 x float> %2, ptr %14, align 4
  %15 = getelementptr inbounds nuw %union.nk_handle, ptr %7, i32 0, i32 0
  store ptr %3, ptr %15, align 8
  store ptr %0, ptr %8, align 8, !tbaa !306
  call void @llvm.lifetime.start.p0(i64 8, ptr %9) #10
  %16 = load ptr, ptr %8, align 8, !tbaa !306
  %17 = getelementptr inbounds nuw %struct.nk_draw_list, ptr %16, i32 0, i32 3
  %18 = load ptr, ptr %17, align 8, !tbaa !311
  %19 = call ptr @nk_buffer_alloc(ptr noundef %18, i32 noundef 1, i64 noundef 32, i64 noundef 8)
  store ptr %19, ptr %9, align 8, !tbaa !327
  %20 = load ptr, ptr %9, align 8, !tbaa !327
  %21 = icmp ne ptr %20, null
  br i1 %21, label %23, label %22

22:                                               ; preds = %4
  store ptr null, ptr %5, align 8
  store i32 1, ptr %10, align 4
  br label %61

23:                                               ; preds = %4
  %24 = load ptr, ptr %8, align 8, !tbaa !306
  %25 = getelementptr inbounds nuw %struct.nk_draw_list, ptr %24, i32 0, i32 8
  %26 = load i32, ptr %25, align 8, !tbaa !325
  %27 = icmp ne i32 %26, 0
  br i1 %27, label %47, label %28

28:                                               ; preds = %23
  call void @llvm.lifetime.start.p0(i64 8, ptr %11) #10
  %29 = load ptr, ptr %8, align 8, !tbaa !306
  %30 = getelementptr inbounds nuw %struct.nk_draw_list, ptr %29, i32 0, i32 3
  %31 = load ptr, ptr %30, align 8, !tbaa !311
  %32 = call ptr @nk_buffer_memory(ptr noundef %31)
  store ptr %32, ptr %11, align 8, !tbaa !26
  call void @llvm.lifetime.start.p0(i64 8, ptr %12) #10
  %33 = load ptr, ptr %8, align 8, !tbaa !306
  %34 = getelementptr inbounds nuw %struct.nk_draw_list, ptr %33, i32 0, i32 3
  %35 = load ptr, ptr %34, align 8, !tbaa !311
  %36 = call i64 @nk_buffer_total(ptr noundef %35)
  store i64 %36, ptr %12, align 8, !tbaa !73
  %37 = load ptr, ptr %11, align 8, !tbaa !26
  %38 = load i64, ptr %12, align 8, !tbaa !73
  %39 = getelementptr inbounds nuw i8, ptr %37, i64 %38
  store ptr %39, ptr %11, align 8, !tbaa !26
  %40 = load ptr, ptr %11, align 8, !tbaa !26
  %41 = load ptr, ptr %9, align 8, !tbaa !327
  %42 = ptrtoint ptr %40 to i64
  %43 = ptrtoint ptr %41 to i64
  %44 = sub i64 %42, %43
  %45 = load ptr, ptr %8, align 8, !tbaa !306
  %46 = getelementptr inbounds nuw %struct.nk_draw_list, ptr %45, i32 0, i32 9
  store i64 %44, ptr %46, align 8, !tbaa !322
  call void @llvm.lifetime.end.p0(i64 8, ptr %12) #10
  call void @llvm.lifetime.end.p0(i64 8, ptr %11) #10
  br label %47

47:                                               ; preds = %28, %23
  %48 = load ptr, ptr %9, align 8, !tbaa !327
  %49 = getelementptr inbounds nuw %struct.nk_draw_command, ptr %48, i32 0, i32 0
  store i32 0, ptr %49, align 8, !tbaa !340
  %50 = load ptr, ptr %9, align 8, !tbaa !327
  %51 = getelementptr inbounds nuw %struct.nk_draw_command, ptr %50, i32 0, i32 1
  call void @llvm.memcpy.p0.p0.i64(ptr align 4 %51, ptr align 4 %6, i64 16, i1 false), !tbaa.struct !3
  %52 = load ptr, ptr %9, align 8, !tbaa !327
  %53 = getelementptr inbounds nuw %struct.nk_draw_command, ptr %52, i32 0, i32 2
  call void @llvm.memcpy.p0.p0.i64(ptr align 8 %53, ptr align 8 %7, i64 8, i1 false), !tbaa.struct !273
  %54 = load ptr, ptr %8, align 8, !tbaa !306
  %55 = getelementptr inbounds nuw %struct.nk_draw_list, ptr %54, i32 0, i32 8
  %56 = load i32, ptr %55, align 8, !tbaa !325
  %57 = add i32 %56, 1
  store i32 %57, ptr %55, align 8, !tbaa !325
  %58 = load ptr, ptr %8, align 8, !tbaa !306
  %59 = getelementptr inbounds nuw %struct.nk_draw_list, ptr %58, i32 0, i32 0
  call void @llvm.memcpy.p0.p0.i64(ptr align 8 %59, ptr align 4 %6, i64 16, i1 false), !tbaa.struct !3
  %60 = load ptr, ptr %9, align 8, !tbaa !327
  store ptr %60, ptr %5, align 8
  store i32 1, ptr %10, align 4
  br label %61

61:                                               ; preds = %47, %22
  call void @llvm.lifetime.end.p0(i64 8, ptr %9) #10
  %62 = load ptr, ptr %5, align 8
  ret ptr %62
}

; Function Attrs: nounwind uwtable
define internal void @nk_draw_list_add_clip(ptr noundef %0, <2 x float> %1, <2 x float> %2) #2 {
  %4 = alloca %struct.nk_rect, align 4
  %5 = alloca ptr, align 8
  %6 = alloca ptr, align 8
  %7 = getelementptr inbounds nuw { <2 x float>, <2 x float> }, ptr %4, i32 0, i32 0
  store <2 x float> %1, ptr %7, align 4
  %8 = getelementptr inbounds nuw { <2 x float>, <2 x float> }, ptr %4, i32 0, i32 1
  store <2 x float> %2, ptr %8, align 4
  store ptr %0, ptr %5, align 8, !tbaa !306
  %9 = load ptr, ptr %5, align 8, !tbaa !306
  %10 = icmp ne ptr %9, null
  br i1 %10, label %12, label %11

11:                                               ; preds = %3
  br label %51

12:                                               ; preds = %3
  %13 = load ptr, ptr %5, align 8, !tbaa !306
  %14 = getelementptr inbounds nuw %struct.nk_draw_list, ptr %13, i32 0, i32 8
  %15 = load i32, ptr %14, align 8, !tbaa !325
  %16 = icmp ne i32 %15, 0
  br i1 %16, label %30, label %17

17:                                               ; preds = %12
  %18 = load ptr, ptr %5, align 8, !tbaa !306
  %19 = load ptr, ptr %5, align 8, !tbaa !306
  %20 = getelementptr inbounds nuw %struct.nk_draw_list, ptr %19, i32 0, i32 2
  %21 = getelementptr inbounds nuw %struct.nk_convert_config, ptr %20, i32 0, i32 6
  %22 = getelementptr inbounds nuw %struct.nk_draw_null_texture, ptr %21, i32 0, i32 0
  %23 = getelementptr inbounds nuw { <2 x float>, <2 x float> }, ptr %4, i32 0, i32 0
  %24 = load <2 x float>, ptr %23, align 4
  %25 = getelementptr inbounds nuw { <2 x float>, <2 x float> }, ptr %4, i32 0, i32 1
  %26 = load <2 x float>, ptr %25, align 4
  %27 = getelementptr inbounds nuw %union.nk_handle, ptr %22, i32 0, i32 0
  %28 = load ptr, ptr %27, align 8
  %29 = call ptr @nk_draw_list_push_command(ptr noundef %18, <2 x float> %24, <2 x float> %26, ptr %28)
  br label %51

30:                                               ; preds = %12
  call void @llvm.lifetime.start.p0(i64 8, ptr %6) #10
  %31 = load ptr, ptr %5, align 8, !tbaa !306
  %32 = call ptr @nk_draw_list_command_last(ptr noundef %31)
  store ptr %32, ptr %6, align 8, !tbaa !327
  %33 = load ptr, ptr %6, align 8, !tbaa !327
  %34 = getelementptr inbounds nuw %struct.nk_draw_command, ptr %33, i32 0, i32 0
  %35 = load i32, ptr %34, align 8, !tbaa !340
  %36 = icmp eq i32 %35, 0
  br i1 %36, label %37, label %40

37:                                               ; preds = %30
  %38 = load ptr, ptr %6, align 8, !tbaa !327
  %39 = getelementptr inbounds nuw %struct.nk_draw_command, ptr %38, i32 0, i32 1
  call void @llvm.memcpy.p0.p0.i64(ptr align 4 %39, ptr align 4 %4, i64 16, i1 false), !tbaa.struct !3
  br label %40

40:                                               ; preds = %37, %30
  %41 = load ptr, ptr %5, align 8, !tbaa !306
  %42 = load ptr, ptr %6, align 8, !tbaa !327
  %43 = getelementptr inbounds nuw %struct.nk_draw_command, ptr %42, i32 0, i32 2
  %44 = getelementptr inbounds nuw { <2 x float>, <2 x float> }, ptr %4, i32 0, i32 0
  %45 = load <2 x float>, ptr %44, align 4
  %46 = getelementptr inbounds nuw { <2 x float>, <2 x float> }, ptr %4, i32 0, i32 1
  %47 = load <2 x float>, ptr %46, align 4
  %48 = getelementptr inbounds nuw %union.nk_handle, ptr %43, i32 0, i32 0
  %49 = load ptr, ptr %48, align 8
  %50 = call ptr @nk_draw_list_push_command(ptr noundef %41, <2 x float> %45, <2 x float> %47, ptr %49)
  call void @llvm.lifetime.end.p0(i64 8, ptr %6) #10
  br label %51

51:                                               ; preds = %11, %40, %17
  ret void
}