; Function Attrs: nounwind uwtable
define internal fastcc void @nk_draw_list_add_clip(ptr noundef nonnull captures(none) %0, <2 x float> %1, <2 x float> %2) unnamed_addr #21 {
  %4 = getelementptr inbounds nuw i8, ptr %0, i64 208
  %5 = load i32, ptr %4, align 8, !tbaa !243
  %.not = icmp eq i32 %5, 0
  br i1 %.not, label %6, label %nk_draw_list_command_last.exit

6:                                                ; preds = %3
  %7 = getelementptr inbounds nuw i8, ptr %0, i64 136
  %8 = load ptr, ptr %7, align 8
  %9 = getelementptr inbounds nuw i8, ptr %0, i64 176
  %10 = load ptr, ptr %9, align 8, !tbaa !228
  %11 = tail call fastcc ptr @nk_buffer_alloc(ptr noundef %10, i32 noundef 1, i64 noundef 32, i64 noundef 8)
  %.not.i = icmp eq ptr %11, null
  br i1 %.not.i, label %nk_draw_list_push_command.exit, label %12

12:                                               ; preds = %6
  %13 = load i32, ptr %4, align 8, !tbaa !243
  %.not21.i = icmp eq i32 %13, 0
  br i1 %.not21.i, label %14, label %nk_draw_list_push_command.exit.sink.split

14:                                               ; preds = %12
  %15 = load ptr, ptr %9, align 8, !tbaa !228
  %.not.i.i = icmp eq ptr %15, null
  br i1 %.not.i.i, label %nk_buffer_total.exit.i, label %16

16:                                               ; preds = %14
  %17 = getelementptr inbounds nuw i8, ptr %15, i64 64
  %18 = load ptr, ptr %17, align 8, !tbaa !41
  %19 = getelementptr inbounds nuw i8, ptr %15, i64 72
  %20 = load i64, ptr %19, align 8, !tbaa !42
  br label %nk_buffer_total.exit.i

nk_buffer_total.exit.i:                           ; preds = %16, %14
  %.0.i25.i = phi ptr [ %18, %16 ], [ null, %14 ]
  %.0.i23.i = phi i64 [ %20, %16 ], [ 0, %14 ]
  %21 = getelementptr inbounds nuw i8, ptr %.0.i25.i, i64 %.0.i23.i
  %22 = ptrtoint ptr %21 to i64
  %23 = ptrtoint ptr %11 to i64
  %24 = sub i64 %22, %23
  %25 = getelementptr inbounds nuw i8, ptr %0, i64 216
  store i64 %24, ptr %25, align 8, !tbaa !242
  br label %nk_draw_list_push_command.exit.sink.split

nk_draw_list_command_last.exit:                   ; preds = %3
  %26 = getelementptr inbounds nuw i8, ptr %0, i64 176
  %27 = load ptr, ptr %26, align 8, !tbaa !228, !nonnull !248, !noundef !248
  %28 = getelementptr inbounds nuw i8, ptr %27, i64 64
  %29 = load ptr, ptr %28, align 8, !tbaa !41
  %30 = getelementptr inbounds nuw i8, ptr %27, i64 72
  %31 = load i64, ptr %30, align 8, !tbaa !42
  %32 = getelementptr inbounds nuw i8, ptr %0, i64 216
  %33 = load i64, ptr %32, align 8, !tbaa !242
  %34 = sub i64 %31, %33
  %35 = getelementptr inbounds nuw i8, ptr %29, i64 %34
  %36 = add i32 %5, -1
  %37 = zext i32 %36 to i64
  %38 = sub nsw i64 0, %37
  %39 = getelementptr inbounds %struct.nk_draw_command, ptr %35, i64 %38
  %40 = load i32, ptr %39, align 8, !tbaa !249
  %41 = icmp eq i32 %40, 0
  br i1 %41, label %42, label %44

42:                                               ; preds = %nk_draw_list_command_last.exit
  %43 = getelementptr inbounds nuw i8, ptr %39, i64 4
  store <2 x float> %1, ptr %43, align 4
  %.sroa.4.0..sroa_idx = getelementptr inbounds nuw i8, ptr %39, i64 12
  store <2 x float> %2, ptr %.sroa.4.0..sroa_idx, align 4
  %.pre = load ptr, ptr %26, align 8, !tbaa !228
  br label %44

44:                                               ; preds = %42, %nk_draw_list_command_last.exit
  %45 = phi ptr [ %.pre, %42 ], [ %27, %nk_draw_list_command_last.exit ]
  %46 = getelementptr inbounds nuw i8, ptr %39, i64 24
  %47 = load ptr, ptr %46, align 8
  %48 = tail call fastcc ptr @nk_buffer_alloc(ptr noundef %45, i32 noundef 1, i64 noundef 32, i64 noundef 8)
  %.not.i13 = icmp eq ptr %48, null
  br i1 %.not.i13, label %nk_draw_list_push_command.exit, label %49

49:                                               ; preds = %44
  %50 = load i32, ptr %4, align 8, !tbaa !243
  %.not21.i14 = icmp eq i32 %50, 0
  br i1 %.not21.i14, label %51, label %nk_draw_list_push_command.exit.sink.split

51:                                               ; preds = %49
  %52 = load ptr, ptr %26, align 8, !tbaa !228
  %.not.i.i17 = icmp eq ptr %52, null
  br i1 %.not.i.i17, label %nk_buffer_total.exit.i18, label %53

53:                                               ; preds = %51
  %54 = getelementptr inbounds nuw i8, ptr %52, i64 64
  %55 = load ptr, ptr %54, align 8, !tbaa !41
  %56 = getelementptr inbounds nuw i8, ptr %52, i64 72
  %57 = load i64, ptr %56, align 8, !tbaa !42
  br label %nk_buffer_total.exit.i18

nk_buffer_total.exit.i18:                         ; preds = %53, %51
  %.0.i25.i19 = phi ptr [ %55, %53 ], [ null, %51 ]
  %.0.i23.i20 = phi i64 [ %57, %53 ], [ 0, %51 ]
  %58 = getelementptr inbounds nuw i8, ptr %.0.i25.i19, i64 %.0.i23.i20
  %59 = ptrtoint ptr %58 to i64
  %60 = ptrtoint ptr %48 to i64
  %61 = sub i64 %59, %60
  store i64 %61, ptr %32, align 8, !tbaa !242
  br label %nk_draw_list_push_command.exit.sink.split

nk_draw_list_push_command.exit.sink.split:        ; preds = %49, %nk_buffer_total.exit.i18, %12, %nk_buffer_total.exit.i
  %.sink28 = phi ptr [ %11, %nk_buffer_total.exit.i ], [ %11, %12 ], [ %48, %nk_buffer_total.exit.i18 ], [ %48, %49 ]
  %.sink = phi ptr [ %8, %nk_buffer_total.exit.i ], [ %8, %12 ], [ %47, %nk_buffer_total.exit.i18 ], [ %47, %49 ]
  store i32 0, ptr %.sink28, align 8, !tbaa !249
  %62 = getelementptr inbounds nuw i8, ptr %.sink28, i64 4
  store <2 x float> %1, ptr %62, align 4
  %.sroa.3.0..sroa_idx.i15 = getelementptr inbounds nuw i8, ptr %.sink28, i64 12
  store <2 x float> %2, ptr %.sroa.3.0..sroa_idx.i15, align 4
  %63 = getelementptr inbounds nuw i8, ptr %.sink28, i64 24
  store ptr %.sink, ptr %63, align 8, !tbaa !9
  %64 = load i32, ptr %4, align 8, !tbaa !243
  %65 = add i32 %64, 1
  store i32 %65, ptr %4, align 8, !tbaa !243
  store <2 x float> %1, ptr %0, align 8
  %.sroa.3.0..sroa_idx17.i16 = getelementptr inbounds nuw i8, ptr %0, i64 8
  store <2 x float> %2, ptr %.sroa.3.0..sroa_idx17.i16, align 8
  br label %nk_draw_list_push_command.exit

nk_draw_list_push_command.exit:                   ; preds = %nk_draw_list_push_command.exit.sink.split, %44, %6
  ret void
}